target datalayout = "e-m:e-p270:32:32-p271:32:32-p272:64:64-i64:64-i128:128-f80:128-n8:16:32:64-S128"
target triple = "x86_64-pc-linux-gnu"

%"class.std::__1::locale::facet" = type { %"class.std::__1::__shared_count" }
%"class.std::__1::__shared_count" = type { ptr, i64 }
%"class.std::__1::codecvt.39" = type { %"class.std::__1::locale::facet" }
%"class.std::__1::__codecvt_utf16.70" = type <{ %"class.std::__1::codecvt.39", i64, i32, [4 x i8] }>

; Function Attrs: mustprogress nounwind uwtable
define internal noundef i32 @_ZNSt3__1L15ucs2_to_utf16leEPKtS1_RS1_PhS3_RS3_mNS_12codecvt_modeE(ptr noundef %0, ptr noundef %1, ptr noundef nonnull align 8 dereferenceable(8) %2, ptr noundef %3, ptr noundef %4, ptr noundef nonnull align 8 dereferenceable(8) %5, i64 noundef %6, i32 noundef %7) #0 {
  %9 = alloca i32, align 4
  %10 = alloca ptr, align 8
  %11 = alloca ptr, align 8
  %12 = alloca ptr, align 8
  %13 = alloca ptr, align 8
  %14 = alloca ptr, align 8
  %15 = alloca ptr, align 8
  %16 = alloca i64, align 8
  %17 = alloca i32, align 4
  %18 = alloca i16, align 2
  %19 = alloca i32, align 4
  store ptr %0, ptr %10, align 8, !tbaa !70
  store ptr %1, ptr %11, align 8, !tbaa !70
  store ptr %2, ptr %12, align 8, !tbaa !500
  store ptr %3, ptr %13, align 8, !tbaa !9
  store ptr %4, ptr %14, align 8, !tbaa !9
  store ptr %5, ptr %15, align 8, !tbaa !95
  store i64 %6, ptr %16, align 8, !tbaa !16
  store i32 %7, ptr %17, align 4, !tbaa !502
  %20 = load ptr, ptr %10, align 8, !tbaa !70
  %21 = load ptr, ptr %12, align 8, !tbaa !500
  store ptr %20, ptr %21, align 8, !tbaa !70
  %22 = load ptr, ptr %13, align 8, !tbaa !9
  %23 = load ptr, ptr %15, align 8, !tbaa !95
  store ptr %22, ptr %23, align 8, !tbaa !9
  %24 = load i32, ptr %17, align 4, !tbaa !502
  %25 = and i32 %24, 2
  %26 = icmp ne i32 %25, 0
  br i1 %26, label %27, label %43

27:                                               ; preds = %8
  %28 = load ptr, ptr %14, align 8, !tbaa !9
  %29 = load ptr, ptr %15, align 8, !tbaa !95
  %30 = load ptr, ptr %29, align 8, !tbaa !9
  %31 = ptrtoint ptr %28 to i64
  %32 = ptrtoint ptr %30 to i64
  %33 = sub i64 %31, %32
  %34 = icmp slt i64 %33, 2
  br i1 %34, label %35, label %36

35:                                               ; preds = %27
  store i32 1, ptr %9, align 4
  br label %93

36:                                               ; preds = %27
  %37 = load ptr, ptr %15, align 8, !tbaa !95
  %38 = load ptr, ptr %37, align 8, !tbaa !9
  %39 = getelementptr inbounds nuw i8, ptr %38, i32 1
  store ptr %39, ptr %37, align 8, !tbaa !9
  store i8 -1, ptr %38, align 1, !tbaa !11
  %40 = load ptr, ptr %15, align 8, !tbaa !95
  %41 = load ptr, ptr %40, align 8, !tbaa !9
  %42 = getelementptr inbounds nuw i8, ptr %41, i32 1
  store ptr %42, ptr %40, align 8, !tbaa !9
  store i8 -2, ptr %41, align 1, !tbaa !11
  br label %43

43:                                               ; preds = %36, %8
  br label %44

44:                                               ; preds = %88, %43
  %45 = load ptr, ptr %12, align 8, !tbaa !500
  %46 = load ptr, ptr %45, align 8, !tbaa !70
  %47 = load ptr, ptr %11, align 8, !tbaa !70
  %48 = icmp ult ptr %46, %47
  br i1 %48, label %49, label %92

49:                                               ; preds = %44
  call void @llvm.lifetime.start.p0(i64 2, ptr %18) #13
  %50 = load ptr, ptr %12, align 8, !tbaa !500
  %51 = load ptr, ptr %50, align 8, !tbaa !70
  %52 = load i16, ptr %51, align 2, !tbaa !73
  store i16 %52, ptr %18, align 2, !tbaa !73
  %53 = load i16, ptr %18, align 2, !tbaa !73
  %54 = zext i16 %53 to i32
  %55 = and i32 %54, 63488
  %56 = icmp eq i32 %55, 55296
  br i1 %56, label %62, label %57

57:                                               ; preds = %49
  %58 = load i16, ptr %18, align 2, !tbaa !73
  %59 = zext i16 %58 to i64
  %60 = load i64, ptr %16, align 8, !tbaa !16
  %61 = icmp ugt i64 %59, %60
  br i1 %61, label %62, label %63

62:                                               ; preds = %57, %49
  store i32 2, ptr %9, align 4
  store i32 1, ptr %19, align 4
  br label %85

63:                                               ; preds = %57
  %64 = load ptr, ptr %14, align 8, !tbaa !9
  %65 = load ptr, ptr %15, align 8, !tbaa !95
  %66 = load ptr, ptr %65, align 8, !tbaa !9
  %67 = ptrtoint ptr %64 to i64
  %68 = ptrtoint ptr %66 to i64
  %69 = sub i64 %67, %68
  %70 = icmp slt i64 %69, 2
  br i1 %70, label %71, label %72

71:                                               ; preds = %63
  store i32 1, ptr %9, align 4
  store i32 1, ptr %19, align 4
  br label %85

72:                                               ; preds = %63
  %73 = load i16, ptr %18, align 2, !tbaa !73
  %74 = trunc i16 %73 to i8
  %75 = load ptr, ptr %15, align 8, !tbaa !95
  %76 = load ptr, ptr %75, align 8, !tbaa !9
  %77 = getelementptr inbounds nuw i8, ptr %76, i32 1
  store ptr %77, ptr %75, align 8, !tbaa !9
  store i8 %74, ptr %76, align 1, !tbaa !11
  %78 = load i16, ptr %18, align 2, !tbaa !73
  %79 = zext i16 %78 to i32
  %80 = ashr i32 %79, 8
  %81 = trunc i32 %80 to i8
  %82 = load ptr, ptr %15, align 8, !tbaa !95
  %83 = load ptr, ptr %82, align 8, !tbaa !9
  %84 = getelementptr inbounds nuw i8, ptr %83, i32 1
  store ptr %84, ptr %82, align 8, !tbaa !9
  store i8 %81, ptr %83, align 1, !tbaa !11
  store i32 0, ptr %19, align 4
  br label %85

85:                                               ; preds = %72, %71, %62
  call void @llvm.lifetime.end.p0(i64 2, ptr %18) #13
  %86 = load i32, ptr %19, align 4
  switch i32 %86, label %95 [
    i32 0, label %87
    i32 1, label %93
  ]

87:                                               ; preds = %85
  br label %88

88:                                               ; preds = %87
  %89 = load ptr, ptr %12, align 8, !tbaa !500
  %90 = load ptr, ptr %89, align 8, !tbaa !70
  %91 = getelementptr inbounds nuw i16, ptr %90, i32 1
  store ptr %91, ptr %89, align 8, !tbaa !70
  br label %44, !llvm.loop !565

92:                                               ; preds = %44
  store i32 0, ptr %9, align 4
  br label %93

93:                                               ; preds = %92, %85, %35
  %94 = load i32, ptr %9, align 4
  ret i32 %94

95:                                               ; preds = %85
  unreachable
}

; Function Attrs: mustprogress uwtable
define dso_local noundef i32 @_ZNKSt3__115__codecvt_utf16IDsLb1EE6do_outER11__mbstate_tPKDsS5_RS5_PcS7_RS7_(ptr noundef nonnull align 8 dereferenceable(28) %0, ptr noundef nonnull align 4 dereferenceable(8) %1, ptr noundef %2, ptr noundef %3, ptr noundef nonnull align 8 dereferenceable(8) %4, ptr noundef %5, ptr noundef %6, ptr noundef nonnull align 8 dereferenceable(8) %7) unnamed_addr #2 align 2 {
  %9 = alloca ptr, align 8
  %10 = alloca ptr, align 8
  %11 = alloca ptr, align 8
  %12 = alloca ptr, align 8
  %13 = alloca ptr, align 8
  %14 = alloca ptr, align 8
  %15 = alloca ptr, align 8
  %16 = alloca ptr, align 8
  %17 = alloca ptr, align 8
  %18 = alloca ptr, align 8
  %19 = alloca ptr, align 8
  %20 = alloca ptr, align 8
  %21 = alloca ptr, align 8
  %22 = alloca ptr, align 8
  %23 = alloca i32, align 4
  store ptr %0, ptr %9, align 8, !tbaa !560
  store ptr %1, ptr %10, align 8, !tbaa !55
  store ptr %2, ptr %11, align 8, !tbaa !496
  store ptr %3, ptr %12, align 8, !tbaa !496
  store ptr %4, ptr %13, align 8, !tbaa !498
  store ptr %5, ptr %14, align 8, !tbaa !9
  store ptr %6, ptr %15, align 8, !tbaa !9
  store ptr %7, ptr %16, align 8, !tbaa !95
  %24 = load ptr, ptr %9, align 8
  call void @llvm.lifetime.start.p0(i64 8, ptr %17) #13
  %25 = load ptr, ptr %11, align 8, !tbaa !496
  store ptr %25, ptr %17, align 8, !tbaa !70
  call void @llvm.lifetime.start.p0(i64 8, ptr %18) #13
  %26 = load ptr, ptr %12, align 8, !tbaa !496
  store ptr %26, ptr %18, align 8, !tbaa !70
  call void @llvm.lifetime.start.p0(i64 8, ptr %19) #13
  %27 = load ptr, ptr %17, align 8, !tbaa !70
  store ptr %27, ptr %19, align 8, !tbaa !70
  call void @llvm.lifetime.start.p0(i64 8, ptr %20) #13
  %28 = load ptr, ptr %14, align 8, !tbaa !9
  store ptr %28, ptr %20, align 8, !tbaa !9
  call void @llvm.lifetime.start.p0(i64 8, ptr %21) #13
  %29 = load ptr, ptr %15, align 8, !tbaa !9
  store ptr %29, ptr %21, align 8, !tbaa !9
  call void @llvm.lifetime.start.p0(i64 8, ptr %22) #13
  %30 = load ptr, ptr %20, align 8, !tbaa !9
  store ptr %30, ptr %22, align 8, !tbaa !9
  call void @llvm.lifetime.start.p0(i64 4, ptr %23) #13
  %31 = load ptr, ptr %17, align 8, !tbaa !70
  %32 = load ptr, ptr %18, align 8, !tbaa !70
  %33 = load ptr, ptr %20, align 8, !tbaa !9
  %34 = load ptr, ptr %21, align 8, !tbaa !9
  %35 = getelementptr inbounds nuw %"class.std::__1::__codecvt_utf16.70", ptr %24, i32 0, i32 1
  %36 = load i64, ptr %35, align 8, !tbaa !562
  %37 = getelementptr inbounds nuw %"class.std::__1::__codecvt_utf16.70", ptr %24, i32 0, i32 2
  %38 = load i32, ptr %37, align 8, !tbaa !564
  %39 = call noundef i32 @_ZNSt3__1L15ucs2_to_utf16leEPKtS1_RS1_PhS3_RS3_mNS_12codecvt_modeE(ptr noundef %31, ptr noundef %32, ptr noundef nonnull align 8 dereferenceable(8) %19, ptr noundef %33, ptr noundef %34, ptr noundef nonnull align 8 dereferenceable(8) %22, i64 noundef %36, i32 noundef %38)
  store i32 %39, ptr %23, align 4, !tbaa !337
  %40 = load ptr, ptr %11, align 8, !tbaa !496
  %41 = load ptr, ptr %19, align 8, !tbaa !70
  %42 = load ptr, ptr %17, align 8, !tbaa !70
  %43 = ptrtoint ptr %41 to i64
  %44 = ptrtoint ptr %42 to i64
  %45 = sub i64 %43, %44
  %46 = sdiv exact i64 %45, 2
  %47 = getelementptr inbounds i16, ptr %40, i64 %46
  %48 = load ptr, ptr %13, align 8, !tbaa !498
  store ptr %47, ptr %48, align 8, !tbaa !496
  %49 = load ptr, ptr %14, align 8, !tbaa !9
  %50 = load ptr, ptr %22, align 8, !tbaa !9
  %51 = load ptr, ptr %20, align 8, !tbaa !9
  %52 = ptrtoint ptr %50 to i64
  %53 = ptrtoint ptr %51 to i64
  %54 = sub i64 %52, %53
  %55 = getelementptr inbounds i8, ptr %49, i64 %54
  %56 = load ptr, ptr %16, align 8, !tbaa !95
  store ptr %55, ptr %56, align 8, !tbaa !9
  %57 = load i32, ptr %23, align 4, !tbaa !337
  call void @llvm.lifetime.end.p0(i64 4, ptr %23) #13
  call void @llvm.lifetime.end.p0(i64 8, ptr %22) #13
  call void @llvm.lifetime.end.p0(i64 8, ptr %21) #13
  call void @llvm.lifetime.end.p0(i64 8, ptr %20) #13
  call void @llvm.lifetime.end.p0(i64 8, ptr %19) #13
  call void @llvm.lifetime.end.p0(i64 8, ptr %18) #13
  call void @llvm.lifetime.end.p0(i64 8, ptr %17) #13
  ret i32 %57
}