; Function Attrs: mustprogress nofree norecurse nosync nounwind memory(argmem: readwrite) uwtable
define dso_local noundef range(i32 0, 3) i32 @_ZNKSt3__115__codecvt_utf16IDsLb1EE6do_outER11__mbstate_tPKDsS5_RS5_PcS7_RS7_(ptr noundef nonnull readonly align 8 captures(none) dereferenceable(28) %0, ptr nonnull readnone align 4 captures(none) %1, ptr noundef %2, ptr noundef readnone captures(address) %3, ptr noundef nonnull writeonly align 8 captures(none) dereferenceable(8) %4, ptr noundef %5, ptr noundef %6, ptr noundef nonnull writeonly align 8 captures(none) dereferenceable(8) %7) unnamed_addr #24 align 2 {
  %9 = getelementptr inbounds nuw i8, ptr %0, i64 16
  %10 = load i64, ptr %9, align 8, !tbaa !463
  %11 = getelementptr inbounds nuw i8, ptr %0, i64 24
  %12 = load i32, ptr %11, align 8, !tbaa !465
  %13 = and i32 %12, 2
  %.not.i = icmp eq i32 %13, 0
  br i1 %.not.i, label %22, label %14

14:                                               ; preds = %8
  %15 = ptrtoint ptr %6 to i64
  %16 = ptrtoint ptr %5 to i64
  %17 = sub i64 %15, %16
  %18 = icmp slt i64 %17, 2
  br i1 %18, label %_ZNSt3__1L15ucs2_to_utf16leEPKtS1_RS1_PhS3_RS3_mNS_12codecvt_modeE.exit, label %19

19:                                               ; preds = %14
  %20 = getelementptr inbounds nuw i8, ptr %5, i64 1
  store i8 -1, ptr %5, align 1, !tbaa !4
  %21 = getelementptr inbounds nuw i8, ptr %5, i64 2
  store i8 -2, ptr %20, align 1, !tbaa !4
  br label %22

22:                                               ; preds = %19, %8
  %.0 = phi ptr [ %5, %8 ], [ %21, %19 ]
  %23 = icmp ult ptr %2, %3
  br i1 %23, label %.lr.ph.i, label %_ZNSt3__1L15ucs2_to_utf16leEPKtS1_RS1_PhS3_RS3_mNS_12codecvt_modeE.exit

.lr.ph.i:                                         ; preds = %22
  %24 = ptrtoint ptr %6 to i64
  br label %25

25:                                               ; preds = %35, %.lr.ph.i
  %.022 = phi ptr [ %2, %.lr.ph.i ], [ %41, %35 ]
  %.1 = phi ptr [ %.0, %.lr.ph.i ], [ %40, %35 ]
  %26 = load i16, ptr %.022, align 2, !tbaa !70
  %27 = and i16 %26, -2048
  %28 = icmp eq i16 %27, -10240
  %29 = zext i16 %26 to i64
  %30 = icmp ult i64 %10, %29
  %or.cond.i = or i1 %28, %30
  br i1 %or.cond.i, label %_ZNSt3__1L15ucs2_to_utf16leEPKtS1_RS1_PhS3_RS3_mNS_12codecvt_modeE.exit, label %31

31:                                               ; preds = %25
  %32 = ptrtoint ptr %.1 to i64
  %33 = sub i64 %24, %32
  %34 = icmp slt i64 %33, 2
  br i1 %34, label %_ZNSt3__1L15ucs2_to_utf16leEPKtS1_RS1_PhS3_RS3_mNS_12codecvt_modeE.exit, label %35

35:                                               ; preds = %31
  %36 = trunc i16 %26 to i8
  %37 = getelementptr inbounds nuw i8, ptr %.1, i64 1
  store i8 %36, ptr %.1, align 1, !tbaa !4
  %38 = lshr i16 %26, 8
  %39 = trunc nuw i16 %38 to i8
  %40 = getelementptr inbounds nuw i8, ptr %.1, i64 2
  store i8 %39, ptr %37, align 1, !tbaa !4
  %41 = getelementptr inbounds nuw i8, ptr %.022, i64 2
  %42 = icmp ult ptr %41, %3
  br i1 %42, label %25, label %_ZNSt3__1L15ucs2_to_utf16leEPKtS1_RS1_PhS3_RS3_mNS_12codecvt_modeE.exit, !llvm.loop !466

_ZNSt3__1L15ucs2_to_utf16leEPKtS1_RS1_PhS3_RS3_mNS_12codecvt_modeE.exit: ; preds = %25, %31, %35, %14, %22
  %.123 = phi ptr [ %2, %22 ], [ %2, %14 ], [ %41, %35 ], [ %.022, %31 ], [ %.022, %25 ]
  %.2 = phi ptr [ %.0, %22 ], [ %5, %14 ], [ %40, %35 ], [ %.1, %31 ], [ %.1, %25 ]
  %.023.i = phi i32 [ 0, %22 ], [ 1, %14 ], [ 0, %35 ], [ 1, %31 ], [ 2, %25 ]
  %43 = ptrtoint ptr %.123 to i64
  %44 = ptrtoint ptr %2 to i64
  %45 = sub i64 %43, %44
  %46 = getelementptr inbounds i8, ptr %2, i64 %45
  store ptr %46, ptr %4, align 8, !tbaa !420
  %47 = ptrtoint ptr %.2 to i64
  %48 = ptrtoint ptr %5 to i64
  %49 = sub i64 %47, %48
  %50 = getelementptr inbounds i8, ptr %5, i64 %49
  store ptr %50, ptr %7, align 8, !tbaa !72
  ret i32 %.023.i
}